target datalayout = "e-m:e-p270:32:32-p271:32:32-p272:64:64-i64:64-i128:128-f80:128-n8:16:32:64-S128"
target triple = "x86_64-pc-linux-gnu"

%struct.fetch_negotiator = type { ptr, ptr, ptr, ptr, ptr, ptr }
%struct.negotiation_state = type { %struct.prio_queue, i32 }
%struct.prio_queue = type { ptr, i64, ptr, i64, i64, ptr }
%struct.commit = type { %struct.object, i64, ptr, ptr, i32 }
%struct.object = type { i32, %struct.object_id }
%struct.object_id = type { [32 x i8], i32 }
%struct.commit_list = type { ptr, ptr }

@the_repository = external global ptr, align 8

; Function Attrs: nounwind uwtable
define internal void @rev_list_push(ptr noundef %0, ptr noundef %1, i32 noundef %2) #0 {
  %4 = alloca ptr, align 8
  %5 = alloca ptr, align 8
  %6 = alloca i32, align 4
  store ptr %0, ptr %4, align 8, !tbaa !15
  store ptr %1, ptr %5, align 8, !tbaa !27
  store i32 %2, ptr %6, align 4, !tbaa !24
  %7 = load ptr, ptr %5, align 8, !tbaa !27
  %8 = getelementptr inbounds nuw %struct.commit, ptr %7, i32 0, i32 0
  %9 = load i32, ptr %8, align 8
  %10 = lshr i32 %9, 4
  %11 = load i32, ptr %6, align 4, !tbaa !24
  %12 = and i32 %10, %11
  %13 = icmp ne i32 %12, 0
  br i1 %13, label %47, label %14

14:                                               ; preds = %3
  %15 = load i32, ptr %6, align 4, !tbaa !24
  %16 = load ptr, ptr %5, align 8, !tbaa !27
  %17 = getelementptr inbounds nuw %struct.commit, ptr %16, i32 0, i32 0
  %18 = load i32, ptr %17, align 8
  %19 = lshr i32 %18, 4
  %20 = or i32 %19, %15
  %21 = load i32, ptr %17, align 8
  %22 = and i32 %20, 268435455
  %23 = shl i32 %22, 4
  %24 = and i32 %21, 15
  %25 = or i32 %24, %23
  store i32 %25, ptr %17, align 8
  %26 = load ptr, ptr @the_repository, align 8, !tbaa !25
  %27 = load ptr, ptr %5, align 8, !tbaa !27
  %28 = call i32 @repo_parse_commit(ptr noundef %26, ptr noundef %27)
  %29 = icmp ne i32 %28, 0
  br i1 %29, label %30, label %31

30:                                               ; preds = %14
  br label %47

31:                                               ; preds = %14
  %32 = load ptr, ptr %4, align 8, !tbaa !15
  %33 = getelementptr inbounds nuw %struct.negotiation_state, ptr %32, i32 0, i32 0
  %34 = load ptr, ptr %5, align 8, !tbaa !27
  call void @prio_queue_put(ptr noundef %33, ptr noundef %34)
  %35 = load ptr, ptr %5, align 8, !tbaa !27
  %36 = getelementptr inbounds nuw %struct.commit, ptr %35, i32 0, i32 0
  %37 = load i32, ptr %36, align 8
  %38 = lshr i32 %37, 4
  %39 = and i32 %38, 4
  %40 = icmp ne i32 %39, 0
  br i1 %40, label %46, label %41

41:                                               ; preds = %31
  %42 = load ptr, ptr %4, align 8, !tbaa !15
  %43 = getelementptr inbounds nuw %struct.negotiation_state, ptr %42, i32 0, i32 1
  %44 = load i32, ptr %43, align 8, !tbaa !36
  %45 = add nsw i32 %44, 1
  store i32 %45, ptr %43, align 8, !tbaa !36
  br label %46

46:                                               ; preds = %41, %31
  br label %47

47:                                               ; preds = %30, %46, %3
  ret void
}

; Function Attrs: inlinehint nounwind uwtable
define internal i32 @repo_parse_commit(ptr noundef %0, ptr noundef %1) #3 {
  %3 = alloca ptr, align 8
  %4 = alloca ptr, align 8
  store ptr %0, ptr %3, align 8, !tbaa !25
  store ptr %1, ptr %4, align 8, !tbaa !27
  %5 = load ptr, ptr %3, align 8, !tbaa !25
  %6 = load ptr, ptr %4, align 8, !tbaa !27
  %7 = call i32 @repo_parse_commit_gently(ptr noundef %5, ptr noundef %6, i32 noundef 0)
  ret i32 %7
}

; Function Attrs: nounwind uwtable
define internal ptr @get_rev(ptr noundef %0) #0 {
  %2 = alloca ptr, align 8
  %3 = alloca ptr, align 8
  %4 = alloca ptr, align 8
  %5 = alloca i32, align 4
  %6 = alloca ptr, align 8
  %7 = alloca i32, align 4
  store ptr %0, ptr %3, align 8, !tbaa !15
  call void @llvm.lifetime.start.p0(i64 8, ptr %4) #6
  store ptr null, ptr %4, align 8, !tbaa !27
  br label %8

8:                                                ; preds = %107, %1
  %9 = load ptr, ptr %4, align 8, !tbaa !27
  %10 = icmp eq ptr %9, null
  br i1 %10, label %11, label %108

11:                                               ; preds = %8
  call void @llvm.lifetime.start.p0(i64 4, ptr %5) #6
  call void @llvm.lifetime.start.p0(i64 8, ptr %6) #6
  %12 = load ptr, ptr %3, align 8, !tbaa !15
  %13 = getelementptr inbounds nuw %struct.negotiation_state, ptr %12, i32 0, i32 0
  %14 = getelementptr inbounds nuw %struct.prio_queue, ptr %13, i32 0, i32 4
  %15 = load i64, ptr %14, align 8, !tbaa !50
  %16 = icmp eq i64 %15, 0
  br i1 %16, label %22, label %17

17:                                               ; preds = %11
  %18 = load ptr, ptr %3, align 8, !tbaa !15
  %19 = getelementptr inbounds nuw %struct.negotiation_state, ptr %18, i32 0, i32 1
  %20 = load i32, ptr %19, align 8, !tbaa !36
  %21 = icmp eq i32 %20, 0
  br i1 %21, label %22, label %23

22:                                               ; preds = %17, %11
  store ptr null, ptr %2, align 8
  store i32 1, ptr %7, align 4
  br label %105

23:                                               ; preds = %17
  %24 = load ptr, ptr %3, align 8, !tbaa !15
  %25 = getelementptr inbounds nuw %struct.negotiation_state, ptr %24, i32 0, i32 0
  %26 = call ptr @prio_queue_get(ptr noundef %25)
  store ptr %26, ptr %4, align 8, !tbaa !27
  %27 = load ptr, ptr @the_repository, align 8, !tbaa !25
  %28 = load ptr, ptr %4, align 8, !tbaa !27
  %29 = call i32 @repo_parse_commit(ptr noundef %27, ptr noundef %28)
  %30 = load ptr, ptr %4, align 8, !tbaa !27
  %31 = getelementptr inbounds nuw %struct.commit, ptr %30, i32 0, i32 2
  %32 = load ptr, ptr %31, align 8, !tbaa !39
  store ptr %32, ptr %6, align 8, !tbaa !45
  %33 = load ptr, ptr %4, align 8, !tbaa !27
  %34 = getelementptr inbounds nuw %struct.commit, ptr %33, i32 0, i32 0
  %35 = load i32, ptr %34, align 8
  %36 = lshr i32 %35, 4
  %37 = or i32 %36, 32
  %38 = load i32, ptr %34, align 8
  %39 = and i32 %37, 268435455
  %40 = shl i32 %39, 4
  %41 = and i32 %38, 15
  %42 = or i32 %41, %40
  store i32 %42, ptr %34, align 8
  %43 = load ptr, ptr %4, align 8, !tbaa !27
  %44 = getelementptr inbounds nuw %struct.commit, ptr %43, i32 0, i32 0
  %45 = load i32, ptr %44, align 8
  %46 = lshr i32 %45, 4
  %47 = and i32 %46, 4
  %48 = icmp ne i32 %47, 0
  br i1 %48, label %54, label %49

49:                                               ; preds = %23
  %50 = load ptr, ptr %3, align 8, !tbaa !15
  %51 = getelementptr inbounds nuw %struct.negotiation_state, ptr %50, i32 0, i32 1
  %52 = load i32, ptr %51, align 8, !tbaa !36
  %53 = add nsw i32 %52, -1
  store i32 %53, ptr %51, align 8, !tbaa !36
  br label %54

54:                                               ; preds = %49, %23
  %55 = load ptr, ptr %4, align 8, !tbaa !27
  %56 = getelementptr inbounds nuw %struct.commit, ptr %55, i32 0, i32 0
  %57 = load i32, ptr %56, align 8
  %58 = lshr i32 %57, 4
  %59 = and i32 %58, 4
  %60 = icmp ne i32 %59, 0
  br i1 %60, label %61, label %62

61:                                               ; preds = %54
  store ptr null, ptr %4, align 8, !tbaa !27
  store i32 20, ptr %5, align 4, !tbaa !24
  br label %72

62:                                               ; preds = %54
  %63 = load ptr, ptr %4, align 8, !tbaa !27
  %64 = getelementptr inbounds nuw %struct.commit, ptr %63, i32 0, i32 0
  %65 = load i32, ptr %64, align 8
  %66 = lshr i32 %65, 4
  %67 = and i32 %66, 8
  %68 = icmp ne i32 %67, 0
  br i1 %68, label %69, label %70

69:                                               ; preds = %62
  store i32 20, ptr %5, align 4, !tbaa !24
  br label %71

70:                                               ; preds = %62
  store i32 16, ptr %5, align 4, !tbaa !24
  br label %71

71:                                               ; preds = %70, %69
  br label %72

72:                                               ; preds = %71, %61
  br label %73

73:                                               ; preds = %100, %72
  %74 = load ptr, ptr %6, align 8, !tbaa !45
  %75 = icmp ne ptr %74, null
  br i1 %75, label %76, label %104

76:                                               ; preds = %73
  %77 = load ptr, ptr %6, align 8, !tbaa !45
  %78 = getelementptr inbounds nuw %struct.commit_list, ptr %77, i32 0, i32 0
  %79 = load ptr, ptr %78, align 8, !tbaa !46
  %80 = getelementptr inbounds nuw %struct.commit, ptr %79, i32 0, i32 0
  %81 = load i32, ptr %80, align 8
  %82 = lshr i32 %81, 4
  %83 = and i32 %82, 16
  %84 = icmp ne i32 %83, 0
  br i1 %84, label %91, label %85

85:                                               ; preds = %76
  %86 = load ptr, ptr %3, align 8, !tbaa !15
  %87 = load ptr, ptr %6, align 8, !tbaa !45
  %88 = getelementptr inbounds nuw %struct.commit_list, ptr %87, i32 0, i32 0
  %89 = load ptr, ptr %88, align 8, !tbaa !46
  %90 = load i32, ptr %5, align 4, !tbaa !24
  call void @rev_list_push(ptr noundef %86, ptr noundef %89, i32 noundef %90)
  br label %91

91:                                               ; preds = %85, %76
  %92 = load i32, ptr %5, align 4, !tbaa !24
  %93 = and i32 %92, 4
  %94 = icmp ne i32 %93, 0
  br i1 %94, label %95, label %100

95:                                               ; preds = %91
  %96 = load ptr, ptr %3, align 8, !tbaa !15
  %97 = load ptr, ptr %6, align 8, !tbaa !45
  %98 = getelementptr inbounds nuw %struct.commit_list, ptr %97, i32 0, i32 0
  %99 = load ptr, ptr %98, align 8, !tbaa !46
  call void @mark_common(ptr noundef %96, ptr noundef %99, i32 noundef 1, i32 noundef 0)
  br label %100

100:                                              ; preds = %95, %91
  %101 = load ptr, ptr %6, align 8, !tbaa !45
  %102 = getelementptr inbounds nuw %struct.commit_list, ptr %101, i32 0, i32 1
  %103 = load ptr, ptr %102, align 8, !tbaa !48
  store ptr %103, ptr %6, align 8, !tbaa !45
  br label %73, !llvm.loop !51

104:                                              ; preds = %73
  store i32 0, ptr %7, align 4
  br label %105

105:                                              ; preds = %104, %22
  call void @llvm.lifetime.end.p0(i64 8, ptr %6) #6
  call void @llvm.lifetime.end.p0(i64 4, ptr %5) #6
  %106 = load i32, ptr %7, align 4
  switch i32 %106, label %112 [
    i32 0, label %107
  ]

107:                                              ; preds = %105
  br label %8, !llvm.loop !52

108:                                              ; preds = %8
  %109 = load ptr, ptr %4, align 8, !tbaa !27
  %110 = getelementptr inbounds nuw %struct.commit, ptr %109, i32 0, i32 0
  %111 = getelementptr inbounds nuw %struct.object, ptr %110, i32 0, i32 1
  store ptr %111, ptr %2, align 8
  store i32 1, ptr %7, align 4
  br label %112

112:                                              ; preds = %108, %105
  call void @llvm.lifetime.end.p0(i64 8, ptr %4) #6
  %113 = load ptr, ptr %2, align 8
  ret ptr %113
}

; Function Attrs: nounwind uwtable
define internal ptr @next(ptr noundef %0) #0 {
  %2 = alloca ptr, align 8
  store ptr %0, ptr %2, align 8, !tbaa !4
  %3 = load ptr, ptr %2, align 8, !tbaa !4
  %4 = getelementptr inbounds nuw %struct.fetch_negotiator, ptr %3, i32 0, i32 0
  store ptr null, ptr %4, align 8, !tbaa !9
  %5 = load ptr, ptr %2, align 8, !tbaa !4
  %6 = getelementptr inbounds nuw %struct.fetch_negotiator, ptr %5, i32 0, i32 1
  store ptr null, ptr %6, align 8, !tbaa !11
  %7 = load ptr, ptr %2, align 8, !tbaa !4
  %8 = getelementptr inbounds nuw %struct.fetch_negotiator, ptr %7, i32 0, i32 5
  %9 = load ptr, ptr %8, align 8, !tbaa !17
  %10 = call ptr @get_rev(ptr noundef %9)
  ret ptr %10
}