; Function Attrs: nounwind uwtable
define internal ptr @next(ptr noundef captures(none) initializes((0, 16)) %0) #0 {
  %2 = getelementptr inbounds nuw i8, ptr %0, i64 40
  tail call void @llvm.memset.p0.i64(ptr noundef nonnull align 8 dereferenceable(16) %0, i8 0, i64 16, i1 false)
  %3 = load ptr, ptr %2, align 8, !tbaa !13
  %4 = getelementptr inbounds nuw i8, ptr %3, i64 32
  %5 = getelementptr inbounds nuw i8, ptr %3, i64 48
  br label %7

.loopexit.i:                                      ; preds = %rev_list_push.exit.i, %rev_list_push.exit.us.i, %25
  %6 = icmp eq ptr %.2.i, null
  br i1 %6, label %7, label %61, !llvm.loop !23

7:                                                ; preds = %.loopexit.i, %1
  %8 = load i64, ptr %4, align 8, !tbaa !25
  %9 = icmp eq i64 %8, 0
  br i1 %9, label %get_rev.exit, label %10

10:                                               ; preds = %7
  %11 = load i32, ptr %5, align 8, !tbaa !22
  %12 = icmp eq i32 %11, 0
  br i1 %12, label %get_rev.exit, label %13

13:                                               ; preds = %10
  %14 = tail call ptr @prio_queue_get(ptr noundef nonnull %3) #5
  %15 = load ptr, ptr @the_repository, align 8, !tbaa !20
  %16 = tail call i32 @repo_parse_commit_gently(ptr noundef %15, ptr noundef %14, i32 noundef 0) #5
  %17 = getelementptr inbounds nuw i8, ptr %14, i64 48
  %18 = load ptr, ptr %17, align 8, !tbaa !26
  %19 = load i32, ptr %14, align 8
  %20 = or i32 %19, 512
  store i32 %20, ptr %14, align 8
  %21 = and i32 %19, 64
  %.not.i = icmp eq i32 %21, 0
  br i1 %.not.i, label %22, label %25

22:                                               ; preds = %13
  %23 = load i32, ptr %5, align 8, !tbaa !22
  %24 = add nsw i32 %23, -1
  store i32 %24, ptr %5, align 8, !tbaa !22
  %.pre.i = load i32, ptr %14, align 8
  br label %25

25:                                               ; preds = %22, %13
  %26 = phi i32 [ %.pre.i, %22 ], [ %20, %13 ]
  %.fr.i = freeze i32 %26
  %27 = and i32 %.fr.i, 64
  %.not28.i = icmp eq i32 %27, 0
  %.2.i = select i1 %.not28.i, ptr %14, ptr null
  %.not3036.i = icmp eq ptr %18, null
  br i1 %.not3036.i, label %.loopexit.i, label %.lr.ph.i

.lr.ph.i:                                         ; preds = %25
  %28 = and i32 %.fr.i, 192
  %29 = icmp eq i32 %28, 0
  br i1 %29, label %.lr.ph.split.us.i, label %.lr.ph.split.i

.lr.ph.split.us.i:                                ; preds = %.lr.ph.i, %rev_list_push.exit.us.i
  %.02237.us.i = phi ptr [ %44, %rev_list_push.exit.us.i ], [ %18, %.lr.ph.i ]
  %30 = load ptr, ptr %.02237.us.i, align 8, !tbaa !32
  %31 = load i32, ptr %30, align 8
  %32 = and i32 %31, 256
  %.not31.us.i = icmp eq i32 %32, 0
  br i1 %.not31.us.i, label %33, label %rev_list_push.exit.us.i

33:                                               ; preds = %.lr.ph.split.us.i
  %34 = or disjoint i32 %31, 256
  store i32 %34, ptr %30, align 8
  %35 = load ptr, ptr @the_repository, align 8, !tbaa !20
  %36 = tail call i32 @repo_parse_commit_gently(ptr noundef %35, ptr noundef nonnull %30, i32 noundef 0) #5
  %.not8.i.us.i = icmp eq i32 %36, 0
  br i1 %.not8.i.us.i, label %37, label %rev_list_push.exit.us.i

37:                                               ; preds = %33
  tail call void @prio_queue_put(ptr noundef nonnull %3, ptr noundef nonnull %30) #5
  %38 = load i32, ptr %30, align 8
  %39 = and i32 %38, 64
  %.not9.i.us.i = icmp eq i32 %39, 0
  br i1 %.not9.i.us.i, label %40, label %rev_list_push.exit.us.i

40:                                               ; preds = %37
  %41 = load i32, ptr %5, align 8, !tbaa !22
  %42 = add nsw i32 %41, 1
  store i32 %42, ptr %5, align 8, !tbaa !22
  br label %rev_list_push.exit.us.i

rev_list_push.exit.us.i:                          ; preds = %40, %37, %33, %.lr.ph.split.us.i
  %43 = getelementptr inbounds nuw i8, ptr %.02237.us.i, i64 8
  %44 = load ptr, ptr %43, align 8, !tbaa !35
  %.not30.us.i = icmp eq ptr %44, null
  br i1 %.not30.us.i, label %.loopexit.i, label %.lr.ph.split.us.i, !llvm.loop !36

.lr.ph.split.i:                                   ; preds = %.lr.ph.i, %rev_list_push.exit.i
  %.02237.i = phi ptr [ %60, %rev_list_push.exit.i ], [ %18, %.lr.ph.i ]
  %45 = load ptr, ptr %.02237.i, align 8, !tbaa !32
  %46 = load i32, ptr %45, align 8
  %47 = and i32 %46, 320
  %or.cond.i = icmp eq i32 %47, 0
  br i1 %or.cond.i, label %48, label %rev_list_push.exit.i

48:                                               ; preds = %.lr.ph.split.i
  %49 = or disjoint i32 %46, 320
  store i32 %49, ptr %45, align 8
  %50 = load ptr, ptr @the_repository, align 8, !tbaa !20
  %51 = tail call i32 @repo_parse_commit_gently(ptr noundef %50, ptr noundef nonnull %45, i32 noundef 0) #5
  %.not8.i.i = icmp eq i32 %51, 0
  br i1 %.not8.i.i, label %52, label %rev_list_push.exit.i

52:                                               ; preds = %48
  tail call void @prio_queue_put(ptr noundef nonnull %3, ptr noundef nonnull %45) #5
  %53 = load i32, ptr %45, align 8
  %54 = and i32 %53, 64
  %.not9.i.i = icmp eq i32 %54, 0
  br i1 %.not9.i.i, label %55, label %rev_list_push.exit.i

55:                                               ; preds = %52
  %56 = load i32, ptr %5, align 8, !tbaa !22
  %57 = add nsw i32 %56, 1
  store i32 %57, ptr %5, align 8, !tbaa !22
  br label %rev_list_push.exit.i

rev_list_push.exit.i:                             ; preds = %55, %52, %48, %.lr.ph.split.i
  %58 = load ptr, ptr %.02237.i, align 8, !tbaa !32
  tail call fastcc void @mark_common(ptr noundef nonnull %3, ptr noundef %58, i32 noundef 1, i32 noundef 0)
  %59 = getelementptr inbounds nuw i8, ptr %.02237.i, i64 8
  %60 = load ptr, ptr %59, align 8, !tbaa !35
  %.not30.i = icmp eq ptr %60, null
  br i1 %.not30.i, label %.loopexit.i, label %.lr.ph.split.i, !llvm.loop !36

61:                                               ; preds = %.loopexit.i
  %62 = getelementptr inbounds nuw i8, ptr %.2.i, i64 4
  br label %get_rev.exit

get_rev.exit:                                     ; preds = %7, %10, %61
  %.227.i = phi ptr [ %62, %61 ], [ null, %10 ], [ null, %7 ]
  ret ptr %.227.i
}